(lp0
(dp1
S'\n'
p2
I125707
sS'\r'
p3
I376
sS'!'
p4
I301072
sS' '
p5
I10812026
sS'#'
p6
I275540
sS'"'
p7
I113131
sS'%'
p8
I4065
sS'$'
p9
I10127
sS"'"
p10
I330174
sS'&'
p11
I89986
sS')'
p12
I49090
sS'('
p13
I31480
sS'+'
p14
I6046
sS'*'
p15
I21747
sS'-'
p16
I82262
sS','
p17
I220507
sS'/'
p18
I703239
sS'.'
p19
I1080262
sS'1'
p20
I176644
sS'0'
p21
I143689
sS'3'
p22
I118323
sS'2'
p23
I135891
sS'5'
p24
I94759
sS'4'
p25
I86914
sS'7'
p26
I72802
sS'6'
p27
I70115
sS'9'
p28
I80170
sS'8'
p29
I68446
sS';'
p30
I99808
sS':'
p31
I683978
sS'='
p32
I4444
sS'<'
p33
I12
sS'?'
p34
I107874
sS'>'
p35
I10
sS'@'
p36
I752445
sS'['
p37
I3701
sS']'
p38
I3752
sS'\\'
p39
I628
sS'_'
p40
I222955
sS'^'
p41
I2083
sS'a'
p42
I4298609
sS'`'
p43
I531
sS'c'
p44
I1636303
sS'b'
p45
I1040299
sS'e'
p46
I5646073
sS'd'
p47
I1766454
sS'g'
p48
I1369503
sS'f'
p49
I1076556
sS'i'
p50
I3729389
sS'h'
p51
I2611158
sS'k'
p52
I869473
sS'j'
p53
I292145
sS'm'
p54
I1689263
sS'l'
p55
I2613846
sS'o'
p56
I4618018
sS'n'
p57
I3321687
sS'q'
p58
I110547
sS'p'
p59
I1266748
sS's'
p60
I3291442
sS'r'
p61
I3122856
sS'u'
p62
I1674428
sS't'
p63
I5249445
sS'w'
p64
I1284817
sS'v'
p65
I614993
sS'y'
p66
I1599985
sS'x'
p67
I237346
sS'{'
p68
I706
sS'z'
p69
I190964
sS'}'
p70
I707
sS'|'
p71
I5101
sS'\x7f'
p72
I2
sS'~'
p73
I3841
saI72419515
a.